target datalayout = "e-m:e-p270:32:32-p271:32:32-p272:64:64-i64:64-i128:128-f80:128-n8:16:32:64-S128"
target triple = "x86_64-pc-linux-gnu"

@l_System_Platform_isWindows = external global i8, align 1
@l_Std_Time_Database_defaultGetLocalZoneRules___closed__1 = internal global ptr null, align 8
@l_Std_Time_Database_defaultGetLocalZoneRules___closed__5 = internal global ptr null, align 8
@l_Std_Time_Database_defaultGetLocalZoneRules___closed__4 = internal global ptr null, align 8

; Function Attrs: nounwind uwtable
define ptr @l_Std_Time_Database_defaultGetLocalZoneRules(ptr noundef %0) #1 {
  %2 = alloca ptr, align 8
  %3 = alloca ptr, align 8
  %4 = alloca i8, align 1
  %5 = alloca ptr, align 8
  %6 = alloca ptr, align 8
  %7 = alloca i32, align 4
  %8 = alloca ptr, align 8
  %9 = alloca ptr, align 8
  %10 = alloca ptr, align 8
  store ptr %0, ptr %3, align 8, !tbaa !8
  br label %11

11:                                               ; preds = %1
  call void @llvm.lifetime.start.p0(i64 1, ptr %4) #7
  %12 = load i8, ptr @l_System_Platform_isWindows, align 1, !tbaa !10
  store i8 %12, ptr %4, align 1, !tbaa !10
  %13 = load i8, ptr %4, align 1, !tbaa !10
  %14 = zext i8 %13 to i32
  %15 = icmp eq i32 %14, 0
  br i1 %15, label %16, label %22

16:                                               ; preds = %11
  call void @llvm.lifetime.start.p0(i64 8, ptr %5) #7
  call void @llvm.lifetime.start.p0(i64 8, ptr %6) #7
  %17 = load ptr, ptr @l_Std_Time_Database_defaultGetLocalZoneRules___closed__1, align 8, !tbaa !8
  store ptr %17, ptr %5, align 8, !tbaa !8
  %18 = load ptr, ptr %5, align 8, !tbaa !8
  %19 = load ptr, ptr %3, align 8, !tbaa !8
  %20 = call ptr @l_Std_Time_Database_TZdb_localRules(ptr noundef %18, ptr noundef %19)
  store ptr %20, ptr %6, align 8, !tbaa !8
  %21 = load ptr, ptr %6, align 8, !tbaa !8
  store ptr %21, ptr %2, align 8
  store i32 1, ptr %7, align 4
  call void @llvm.lifetime.end.p0(i64 8, ptr %6) #7
  call void @llvm.lifetime.end.p0(i64 8, ptr %5) #7
  br label %30

22:                                               ; preds = %11
  call void @llvm.lifetime.start.p0(i64 8, ptr %8) #7
  call void @llvm.lifetime.start.p0(i64 8, ptr %9) #7
  call void @llvm.lifetime.start.p0(i64 8, ptr %10) #7
  %23 = load ptr, ptr @l_Std_Time_Database_defaultGetLocalZoneRules___closed__5, align 8, !tbaa !8
  store ptr %23, ptr %8, align 8, !tbaa !8
  %24 = load ptr, ptr @l_Std_Time_Database_defaultGetLocalZoneRules___closed__4, align 8, !tbaa !8
  store ptr %24, ptr %9, align 8, !tbaa !8
  %25 = load ptr, ptr %8, align 8, !tbaa !8
  %26 = load ptr, ptr %9, align 8, !tbaa !8
  %27 = load ptr, ptr %3, align 8, !tbaa !8
  %28 = call ptr @l_Bind_bindLeft___at_Std_Time_Database_WindowsDb_inst___spec__1(ptr noundef %25, ptr noundef %26, ptr noundef %27)
  store ptr %28, ptr %10, align 8, !tbaa !8
  %29 = load ptr, ptr %10, align 8, !tbaa !8
  store ptr %29, ptr %2, align 8
  store i32 1, ptr %7, align 4
  call void @llvm.lifetime.end.p0(i64 8, ptr %10) #7
  call void @llvm.lifetime.end.p0(i64 8, ptr %9) #7
  call void @llvm.lifetime.end.p0(i64 8, ptr %8) #7
  br label %30

30:                                               ; preds = %22, %16
  call void @llvm.lifetime.end.p0(i64 1, ptr %4) #7
  %31 = load ptr, ptr %2, align 8
  ret ptr %31
}