; Function Attrs: nounwind uwtable
define ptr @l_Std_Time_Database_defaultGetLocalZoneRules(ptr noundef %0) local_unnamed_addr #0 {
  %2 = load i8, ptr @l_System_Platform_isWindows, align 1, !tbaa !15
  %3 = icmp eq i8 %2, 0
  br i1 %3, label %4, label %7

4:                                                ; preds = %1
  %5 = load ptr, ptr @l_Std_Time_Database_defaultGetLocalZoneRules___closed__1, align 8, !tbaa !10
  %6 = tail call ptr @l_Std_Time_Database_TZdb_localRules(ptr noundef %5, ptr noundef %0) #4
  br label %11

7:                                                ; preds = %1
  %8 = load ptr, ptr @l_Std_Time_Database_defaultGetLocalZoneRules___closed__5, align 8, !tbaa !10
  %9 = load ptr, ptr @l_Std_Time_Database_defaultGetLocalZoneRules___closed__4, align 8, !tbaa !10
  %10 = tail call ptr @l_Bind_bindLeft___at_Std_Time_Database_WindowsDb_inst___spec__1(ptr noundef %8, ptr noundef %9, ptr noundef %0) #4
  br label %11

11:                                               ; preds = %7, %4
  %.0 = phi ptr [ %6, %4 ], [ %10, %7 ]
  ret ptr %.0
}